target datalayout = "e-m:e-p270:32:32-p271:32:32-p272:64:64-i64:64-i128:128-f80:128-n8:16:32:64-S128"
target triple = "x86_64-unknown-linux-gnu"

%"class.icu_75::BMPSet" = type <{ ptr, [256 x i8], i8, [3 x i8], [64 x i32], [64 x i32], [18 x i32], [4 x i8], ptr, i32, [4 x i8] }>

; Function Attrs: mustprogress nounwind uwtable
define noundef i32 @_ZNK6icu_756BMPSet13findCodePointEiii(ptr noundef nonnull align 8 dereferenceable(868) %this, i32 noundef %c, i32 noundef %lo, i32 noundef %hi) #2 align 2 {
entry:
  %retval = alloca i32, align 4
  %this.addr = alloca ptr, align 8
  %c.addr = alloca i32, align 4
  %lo.addr = alloca i32, align 4
  %hi.addr = alloca i32, align 4
  %i = alloca i32, align 4
  store ptr %this, ptr %this.addr, align 8
  store i32 %c, ptr %c.addr, align 4
  store i32 %lo, ptr %lo.addr, align 4
  store i32 %hi, ptr %hi.addr, align 4
  %this1 = load ptr, ptr %this.addr, align 8
  %0 = load i32, ptr %c.addr, align 4
  %list = getelementptr inbounds %"class.icu_75::BMPSet", ptr %this1, i32 0, i32 8
  %1 = load ptr, ptr %list, align 8
  %2 = load i32, ptr %lo.addr, align 4
  %idxprom = sext i32 %2 to i64
  %arrayidx = getelementptr inbounds i32, ptr %1, i64 %idxprom
  %3 = load i32, ptr %arrayidx, align 4
  %cmp = icmp slt i32 %0, %3
  br i1 %cmp, label %if.then, label %if.end

if.then:                                          ; preds = %entry
  %4 = load i32, ptr %lo.addr, align 4
  store i32 %4, ptr %retval, align 4
  br label %return

if.end:                                           ; preds = %entry
  %5 = load i32, ptr %lo.addr, align 4
  %6 = load i32, ptr %hi.addr, align 4
  %cmp2 = icmp sge i32 %5, %6
  br i1 %cmp2, label %if.then7, label %lor.lhs.false

lor.lhs.false:                                    ; preds = %if.end
  %7 = load i32, ptr %c.addr, align 4
  %list3 = getelementptr inbounds %"class.icu_75::BMPSet", ptr %this1, i32 0, i32 8
  %8 = load ptr, ptr %list3, align 8
  %9 = load i32, ptr %hi.addr, align 4
  %sub = sub nsw i32 %9, 1
  %idxprom4 = sext i32 %sub to i64
  %arrayidx5 = getelementptr inbounds i32, ptr %8, i64 %idxprom4
  %10 = load i32, ptr %arrayidx5, align 4
  %cmp6 = icmp sge i32 %7, %10
  br i1 %cmp6, label %if.then7, label %if.end8

if.then7:                                         ; preds = %lor.lhs.false, %if.end
  %11 = load i32, ptr %hi.addr, align 4
  store i32 %11, ptr %retval, align 4
  br label %return

if.end8:                                          ; preds = %lor.lhs.false
  br label %for.cond

for.cond:                                         ; preds = %if.end18, %if.end8
  %12 = load i32, ptr %lo.addr, align 4
  %13 = load i32, ptr %hi.addr, align 4
  %add = add nsw i32 %12, %13
  %shr = ashr i32 %add, 1
  store i32 %shr, ptr %i, align 4
  %14 = load i32, ptr %i, align 4
  %15 = load i32, ptr %lo.addr, align 4
  %cmp9 = icmp eq i32 %14, %15
  br i1 %cmp9, label %if.then10, label %if.else

if.then10:                                        ; preds = %for.cond
  br label %for.end

if.else:                                          ; preds = %for.cond
  %16 = load i32, ptr %c.addr, align 4
  %list11 = getelementptr inbounds %"class.icu_75::BMPSet", ptr %this1, i32 0, i32 8
  %17 = load ptr, ptr %list11, align 8
  %18 = load i32, ptr %i, align 4
  %idxprom12 = sext i32 %18 to i64
  %arrayidx13 = getelementptr inbounds i32, ptr %17, i64 %idxprom12
  %19 = load i32, ptr %arrayidx13, align 4
  %cmp14 = icmp slt i32 %16, %19
  br i1 %cmp14, label %if.then15, label %if.else16

if.then15:                                        ; preds = %if.else
  %20 = load i32, ptr %i, align 4
  store i32 %20, ptr %hi.addr, align 4
  br label %if.end17

if.else16:                                        ; preds = %if.else
  %21 = load i32, ptr %i, align 4
  store i32 %21, ptr %lo.addr, align 4
  br label %if.end17

if.end17:                                         ; preds = %if.else16, %if.then15
  br label %if.end18

if.end18:                                         ; preds = %if.end17
  br label %for.cond, !llvm.loop !6

for.end:                                          ; preds = %if.then10
  %22 = load i32, ptr %hi.addr, align 4
  store i32 %22, ptr %retval, align 4
  br label %return

return:                                           ; preds = %for.end, %if.then7, %if.then
  %23 = load i32, ptr %retval, align 4
  ret i32 %23
}