; Function Attrs: mustprogress nofree norecurse nosync nounwind willreturn memory(read, inaccessiblemem: none) uwtable
define noundef i32 @_ZNK6icu_756BMPSet13findCodePointEiii(ptr nocapture noundef nonnull readonly align 8 dereferenceable(868) %this, i32 noundef %c, i32 noundef %lo, i32 noundef %hi) local_unnamed_addr #2 align 2 {
entry:
  %list = getelementptr inbounds i8, ptr %this, i64 856
  %0 = load ptr, ptr %list, align 8
  %idxprom = sext i32 %lo to i64
  %arrayidx = getelementptr inbounds i32, ptr %0, i64 %idxprom
  %1 = load i32, ptr %arrayidx, align 4
  %cmp = icmp sgt i32 %1, %c
  br i1 %cmp, label %return, label %if.end

if.end:                                           ; preds = %entry
  %cmp2.not = icmp slt i32 %lo, %hi
  br i1 %cmp2.not, label %lor.lhs.false, label %return

lor.lhs.false:                                    ; preds = %if.end
  %2 = sext i32 %hi to i64
  %3 = getelementptr i32, ptr %0, i64 %2
  %arrayidx5 = getelementptr i8, ptr %3, i64 -4
  %4 = load i32, ptr %arrayidx5, align 4
  %cmp6.not = icmp sgt i32 %4, %c
  br i1 %cmp6.not, label %for.cond.preheader, label %return

for.cond.preheader:                               ; preds = %lor.lhs.false
  %add14 = add nsw i32 %hi, %lo
  %shr15 = ashr i32 %add14, 1
  %cmp916 = icmp eq i32 %shr15, %lo
  br i1 %cmp916, label %return, label %if.else

if.else:                                          ; preds = %for.cond.preheader, %if.else
  %shr19 = phi i32 [ %shr, %if.else ], [ %shr15, %for.cond.preheader ]
  %hi.addr.018 = phi i32 [ %shr.hi.addr.0, %if.else ], [ %hi, %for.cond.preheader ]
  %lo.addr.017 = phi i32 [ %lo.addr.0.shr, %if.else ], [ %lo, %for.cond.preheader ]
  %idxprom12 = sext i32 %shr19 to i64
  %arrayidx13 = getelementptr inbounds i32, ptr %0, i64 %idxprom12
  %5 = load i32, ptr %arrayidx13, align 4
  %cmp14 = icmp sgt i32 %5, %c
  %lo.addr.0.shr = select i1 %cmp14, i32 %lo.addr.017, i32 %shr19
  %shr.hi.addr.0 = select i1 %cmp14, i32 %shr19, i32 %hi.addr.018
  %add = add nsw i32 %shr.hi.addr.0, %lo.addr.0.shr
  %shr = ashr i32 %add, 1
  %cmp9 = icmp eq i32 %shr, %lo.addr.0.shr
  br i1 %cmp9, label %return, label %if.else, !llvm.loop !4

return:                                           ; preds = %if.else, %for.cond.preheader, %if.end, %lor.lhs.false, %entry
  %retval.0 = phi i32 [ %lo, %entry ], [ %hi, %lor.lhs.false ], [ %hi, %if.end ], [ %hi, %for.cond.preheader ], [ %shr.hi.addr.0, %if.else ]
  ret i32 %retval.0
}